; Function Attrs: nounwind sspstrong uwtable
define internal void @char_serial_class_init(ptr noundef %oc, ptr readnone captures(none) %data) #0 {
entry:
  %call.i = tail call ptr @object_class_dynamic_cast_assert(ptr noundef %oc, ptr noundef nonnull @.str.2, ptr noundef nonnull @.str.3, i32 noundef 231, ptr noundef nonnull @__func__.CHARDEV_CLASS) #7
  %parse = getelementptr inbounds nuw i8, ptr %call.i, i64 104
  store ptr @qemu_chr_parse_serial, ptr %parse, align 8
  %open = getelementptr inbounds nuw i8, ptr %call.i, i64 112
  store ptr @qmp_chardev_open_serial, ptr %open, align 8
  %chr_ioctl = getelementptr inbounds nuw i8, ptr %call.i, i64 152
  store ptr @tty_serial_ioctl, ptr %chr_ioctl, align 8
  ret void
}